target datalayout = "e-m:e-p270:32:32-p271:32:32-p272:64:64-i64:64-i128:128-f80:128-n8:16:32:64-S128"
target triple = "x86_64-pc-linux-gnu"

%struct.ossl_qrx_st = type { ptr, ptr, ptr, i64, i64, i64, %struct.ossl_list_st_urxe, %struct.ossl_list_st_urxe, %struct.ossl_list_st_rxe, %struct.ossl_list_st_rxe, [3 x i64], %struct.ossl_qrl_enc_level_set_st, i64, i64, i64, ptr, ptr, ptr, ptr, i8, i8, ptr, ptr, ptr }
%struct.ossl_list_st_urxe = type { ptr, ptr, i64 }
%struct.ossl_list_st_rxe = type { ptr, ptr, i64 }
%struct.ossl_qrl_enc_level_set_st = type { [4 x %struct.ossl_qrl_enc_level_st] }
%struct.ossl_qrl_enc_level_st = type { %struct.quic_hdr_protector_st, ptr, [2 x ptr], ptr, ptr, i64, i64, i32, i32, i8, i8, [2 x [16 x i8]], [64 x i8] }
%struct.quic_hdr_protector_st = type { ptr, ptr, ptr, ptr, i32 }

; Function Attrs: nounwind uwtable
define internal void @qrx_key_update_initiated(ptr noundef %0, i64 noundef %1) #0 {
  %3 = alloca ptr, align 8
  %4 = alloca i64, align 8
  store ptr %0, ptr %3, align 8, !tbaa !15
  store i64 %1, ptr %4, align 8, !tbaa !17
  %5 = load ptr, ptr %3, align 8, !tbaa !15
  %6 = getelementptr inbounds nuw %struct.ossl_qrx_st, ptr %5, i32 0, i32 11
  %7 = call i32 @ossl_qrl_enc_level_set_key_update(ptr noundef %6, i32 noundef 3)
  %8 = icmp ne i32 %7, 0
  br i1 %8, label %10, label %9

9:                                                ; preds = %2
  br label %26

10:                                               ; preds = %2
  %11 = load i64, ptr %4, align 8, !tbaa !17
  %12 = load ptr, ptr %3, align 8, !tbaa !15
  %13 = getelementptr inbounds nuw %struct.ossl_qrx_st, ptr %12, i32 0, i32 14
  store i64 %11, ptr %13, align 8, !tbaa !145
  %14 = load ptr, ptr %3, align 8, !tbaa !15
  %15 = getelementptr inbounds nuw %struct.ossl_qrx_st, ptr %14, i32 0, i32 17
  %16 = load ptr, ptr %15, align 8, !tbaa !99
  %17 = icmp ne ptr %16, null
  br i1 %17, label %18, label %26

18:                                               ; preds = %10
  %19 = load ptr, ptr %3, align 8, !tbaa !15
  %20 = getelementptr inbounds nuw %struct.ossl_qrx_st, ptr %19, i32 0, i32 17
  %21 = load ptr, ptr %20, align 8, !tbaa !99
  %22 = load i64, ptr %4, align 8, !tbaa !17
  %23 = load ptr, ptr %3, align 8, !tbaa !15
  %24 = getelementptr inbounds nuw %struct.ossl_qrx_st, ptr %23, i32 0, i32 18
  %25 = load ptr, ptr %24, align 8, !tbaa !100
  call void %21(i64 noundef %22, ptr noundef %25)
  br label %26

26:                                               ; preds = %9, %18, %10
  ret void
}