; Function Attrs: nounwind uwtable
define internal fastcc void @qrx_key_update_initiated(ptr noundef %0, i64 noundef %1) unnamed_addr #0 {
  %3 = getelementptr inbounds nuw i8, ptr %0, i64 168
  %4 = tail call i32 @ossl_qrl_enc_level_set_key_update(ptr noundef nonnull %3, i32 noundef 3) #11
  %.not = icmp eq i32 %4, 0
  br i1 %.not, label %12, label %5

5:                                                ; preds = %2
  %6 = getelementptr inbounds nuw i8, ptr %0, i64 1016
  store i64 %1, ptr %6, align 8, !tbaa !100
  %7 = getelementptr inbounds nuw i8, ptr %0, i64 1040
  %8 = load ptr, ptr %7, align 8, !tbaa !119
  %.not6 = icmp eq ptr %8, null
  br i1 %.not6, label %12, label %9

9:                                                ; preds = %5
  %10 = getelementptr inbounds nuw i8, ptr %0, i64 1048
  %11 = load ptr, ptr %10, align 8, !tbaa !120
  tail call void %8(i64 noundef %1, ptr noundef %11) #11
  br label %12

12:                                               ; preds = %2, %9, %5
  ret void
}